target datalayout = "e-m:e-p270:32:32-p271:32:32-p272:64:64-i64:64-i128:128-f80:128-n8:16:32:64-S128"
target triple = "x86_64-pc-linux-gnu"

@.str.48 = private unnamed_addr constant [8 x i8] c"__pairs\00", align 1

; Function Attrs: nounwind uwtable
define internal i32 @luaB_pairs(ptr noundef %0) #0 {
  %2 = alloca ptr, align 8
  store ptr %0, ptr %2, align 8, !tbaa !4
  %3 = load ptr, ptr %2, align 8, !tbaa !4
  call void @luaL_checkany(ptr noundef %3, i32 noundef 1)
  %4 = load ptr, ptr %2, align 8, !tbaa !4
  %5 = call i32 @luaL_getmetafield(ptr noundef %4, i32 noundef 1, ptr noundef @.str.48)
  %6 = icmp eq i32 %5, 0
  br i1 %6, label %7, label %11

7:                                                ; preds = %1
  %8 = load ptr, ptr %2, align 8, !tbaa !4
  call void @lua_pushcclosure(ptr noundef %8, ptr noundef @luaB_next, i32 noundef 0)
  %9 = load ptr, ptr %2, align 8, !tbaa !4
  call void @lua_pushvalue(ptr noundef %9, i32 noundef 1)
  %10 = load ptr, ptr %2, align 8, !tbaa !4
  call void @lua_pushnil(ptr noundef %10)
  br label %14

11:                                               ; preds = %1
  %12 = load ptr, ptr %2, align 8, !tbaa !4
  call void @lua_pushvalue(ptr noundef %12, i32 noundef 1)
  %13 = load ptr, ptr %2, align 8, !tbaa !4
  call void @lua_callk(ptr noundef %13, i32 noundef 1, i32 noundef 3, i64 noundef 0, ptr noundef @pairscont)
  br label %14

14:                                               ; preds = %11, %7
  ret i32 3
}