; Function Attrs: nounwind uwtable
define internal noundef i32 @luaB_pairs(ptr noundef %0) #0 {
  tail call void @luaL_checkany(ptr noundef %0, i32 noundef 1) #9
  %2 = tail call i32 @luaL_getmetafield(ptr noundef %0, i32 noundef 1, ptr noundef nonnull @.str.48) #9
  %3 = icmp eq i32 %2, 0
  br i1 %3, label %4, label %5

4:                                                ; preds = %1
  tail call void @lua_pushcclosure(ptr noundef %0, ptr noundef nonnull @luaB_next, i32 noundef 0) #9
  tail call void @lua_pushvalue(ptr noundef %0, i32 noundef 1) #9
  tail call void @lua_pushnil(ptr noundef %0) #9
  br label %6

5:                                                ; preds = %1
  tail call void @lua_pushvalue(ptr noundef %0, i32 noundef 1) #9
  tail call void @lua_callk(ptr noundef %0, i32 noundef 1, i32 noundef 3, i64 noundef 0, ptr noundef nonnull @pairscont) #9
  br label %6

6:                                                ; preds = %5, %4
  ret i32 3
}